; Listing generated by Microsoft (R) Optimizing Compiler Version 19.33.31629.0 

	TITLE	C:\Users\User\Desktop\óí\êïî\lab1\lab1\Debug\dayBeforeBr.obj
	.686P
	.XMM
	include listing.inc
	.model	flat

INCLUDELIB MSVCRTD
INCLUDELIB OLDNAMES

msvcjmc	SEGMENT
__529D0EAA_concurrencysal@h DB 01H
__7EC34687_sal@h DB 01H
__35A2D2DF_vadefs@h DB 01H
__5F022EB5_vcruntime@h DB 01H
__BBDF6BA8_xkeycheck@h DB 01H
__7F8F4960_yvals_core@h DB 01H
__F3D99286_limits@h DB 01H
__F2E1951A_climits DB 01H
__6569C2CA_corecrt@h DB 01H
__8B8B49C3_vcruntime_new@h DB 01H
__5021BF8A_vcruntime_new_debug@h DB 01H
__49916C16_crtdbg@h DB 01H
__0FF1727D_crtdefs@h DB 01H
__327B4A79_use_ansi@h DB 01H
__C04E0157_yvals@h DB 01H
__741AE07E_corecrt_math@h DB 01H
__91D68F2D_math@h DB 01H
__6C20D4D3_corecrt_malloc@h DB 01H
__C9393812_stddef@h DB 01H
__D493B9BD_corecrt_search@h DB 01H
__1473E23E_corecrt_wstdlib@h DB 01H
__B49664B7_stdlib@h DB 01H
__760EB7E8_cstdlib DB 01H
__C9757830_xtr1common DB 01H
__E5CDC221_intrin0@inl@h DB 01H
__16DCCB76_intrin0@h DB 01H
__1C794830_cmath DB 01H
__A2143F22_corecrt_stdio_config@h DB 01H
__829E1958_corecrt_wstdio@h DB 01H
__6DFAE8B8_stdio@h DB 01H
__46E22952_cstdio DB 01H
__CDDAF8CA_errno@h DB 01H
__74AC4223_vcruntime_string@h DB 01H
__1FEB9909_corecrt_memcpy_s@h DB 01H
__A751F051_corecrt_memory@h DB 01H
__9200769A_corecrt_wstring@h DB 01H
__32E5F013_string@h DB 01H
__3A9C1F08_cstring DB 01H
__C6E16F6F_corecrt_wconio@h DB 01H
__5DB64B66_corecrt_wctype@h DB 01H
__CB8D9B53_corecrt_wdirect@h DB 01H
__A9063C41_corecrt_share@h DB 01H
__6D390390_corecrt_wio@h DB 01H
__61BDDCD5_corecrt_wprocess@h DB 01H
__1157D6BA_corecrt_wtime@h DB 01H
__64F617E8_types@h DB 01H
__1DC1E279_stat@h DB 01H
__93DC0B45_wchar@h DB 01H
__DC69FF01_cwchar DB 01H
__D3C56D45_cstddef DB 01H
__485B7899_initializer_list DB 01H
__B61CA571_xstddef DB 01H
__9FA97A37_iosfwd DB 01H
__4DAFBCB9_stdint@h DB 01H
__CB505695_cstdint DB 01H
__F576AD63_type_traits DB 01H
__41033263_utility DB 01H
__2177C444_xutility DB 01H
__30DB7304_iterator DB 01H
__5B81F060_share@h DB 01H
__33989847___msvc_system_error_abi@hpp DB 01H
__DBC35DA9_cerrno DB 01H
__20BB4341_malloc@h DB 01H
__3C5D8049_corecrt_terminate@h DB 01H
__5569C08B_eh@h DB 01H
__58CFBAD8_vcruntime_exception@h DB 01H
__C7AE1CEB_exception DB 01H
__158E8E48_float@h DB 01H
__35A6E2D5_cfloat DB 01H
__A7274850_isa_availability@h DB 01H
__5340AFB1_limits DB 01H
__C7AADC23_new DB 01H
__CDA2903D_xatomic@h DB 01H
__2B9651A0_xmemory DB 01H
__5F45D73C_xstring DB 01H
__4EE026B6_stdexcept DB 01H
__3C179730_xcall_once@h DB 01H
__68DB1458_xerrc@h DB 01H
__A0B61CF9_time@h DB 01H
__DACAD438_ctime DB 01H
__97B32705_xtimec@h DB 01H
__53357DCA_xthreads@h DB 01H
__3875F373_atomic DB 01H
__834A8510_system_error DB 01H
__B3F9668E_vcruntime_typeinfo@h DB 01H
__51A8375D_typeinfo DB 01H
__EFEEA33F_memory DB 01H
__C3ABF430_xfacet DB 01H
__215922A6___msvc_xlocinfo_types@hpp DB 01H
__B2D2BA86_ctype@h DB 01H
__4929CEF5_cctype DB 01H
__A3D09DBA_locale@h DB 01H
__E5A26B39_clocale DB 01H
__4E21D495_xlocinfo DB 01H
__807BA30D_xlocale DB 01H
__77C4A386_xiosbase DB 01H
__4C409E0A_streambuf DB 01H
__1EFCC51A_xlocnum DB 01H
__3F67E635_ios DB 01H
__936B79C9_ostream DB 01H
__F0BB4CF3_istream DB 01H
__430EBE5B_iostream DB 01H
__D0DFFAC6_winpackagefamily@h DB 01H
__D0D0F397_winapifamily@h DB 01H
__94A3FDDD_sdkddkver@h DB 01H
__3F7A3B5F_excpt@h DB 01H
__79700276_stdarg@h DB 01H
__1C9F390F_specstrings_undef@h DB 01H
__36A21E95_specstrings_strict@h DB 01H
__452FE810_sdv_driverspecs@h DB 01H
__30F344B3_driverspecs@h DB 01H
__BD886E18_specstrings@h DB 01H
__BF9C347F_kernelspecs@h DB 01H
__79C7FC57_basetsd@h DB 01H
__D545DD43_guiddef@h DB 01H
__DF4F952E_pshpack4@h DB 01H
__7FCD0577_poppack@h DB 01H
__DBC2E99C_pshpack2@h DB 01H
__D6556C4A_pshpack8@h DB 01H
__D98457C5_pshpack1@h DB 01H
__614C4572_apiset@h DB 01H
__8500295D_ktmtypes@h DB 01H
__D5DDFBF3_winnt@h DB 01H
__156BD51A_minwindef@h DB 01H
__F9B9A8F7_windef@h DB 01H
__BD2C4590_apisetcconv@h DB 01H
__18251742_minwinbase@h DB 01H
__23611203_apiquery2@h DB 01H
__C914CD48_processenv@h DB 01H
__996311FD_fileapi@h DB 01H
__41AEF397_fileapifromapp@h DB 01H
__65579FF3_debugapi@h DB 01H
__476FCB5A_utilapiset@h DB 01H
__089D2E42_handleapi@h DB 01H
__B16F04F5_errhandlingapi@h DB 01H
__81CCB02F_fibersapi@h DB 01H
__A9B4C5F0_namedpipeapi@h DB 01H
__C209F2C8_profileapi@h DB 01H
__34C22DC8_heapapi@h DB 01H
__8A238485_ioapiset@h DB 01H
__4826BA69_synchapi@h DB 01H
__6A31599C_interlockedapi@h DB 01H
__439612F0_processthreadsapi@h DB 01H
__7BB37CFA_sysinfoapi@h DB 01H
__5733279A_memoryapi@h DB 01H
__6D078C0D_enclaveapi@h DB 01H
__3663CE50_threadpoollegacyapiset@h DB 01H
__E16717D9_threadpoolapiset@h DB 01H
__4A6035CC_jobapi@h DB 01H
__62EEB553_jobapi2@h DB 01H
__9F22E7EF_wow64apiset@h DB 01H
__E86B4A9A_libloaderapi@h DB 01H
__EB536E54_securitybaseapi@h DB 01H
__E915C287_namespaceapi@h DB 01H
__C66F44F2_systemtopologyapi@h DB 01H
__B6175B28_processtopologyapi@h DB 01H
__9E4AD838_securityappcontainer@h DB 01H
__F599FDAE_realtimeapiset@h DB 01H
__D4435474_winerror@h DB 01H
__F94F31E6_timezoneapi@h DB 01H
__B3ED30D4_winbase@h DB 01H
__E9F7D11F_wingdi@h DB 01H
__AC21C382_tvout@h DB 01H
__DB057BA3_winuser@h DB 01H
__A1BAD304_datetimeapi@h DB 01H
__30E2BD27_winnls@h DB 01H
__B7FF4B97_stringapiset@h DB 01H
__66C87297_wincontypes@h DB 01H
__1317218F_consoleapi@h DB 01H
__8D62D26D_consoleapi2@h DB 01H
__8CA0B85A_consoleapi3@h DB 01H
__CE39E65B_wincon@h DB 01H
__F6801ACC_verrsrc@h DB 01H
__1CB844D9_winver@h DB 01H
__D0CFA71C_reason@h DB 01H
__F3D58382_winreg@h DB 01H
__34C28572_wnnc@h DB 01H
__0617DE59_winnetwk@h DB 01H
__93AC9EF8_cderr@h DB 01H
__3AE29FFA_dde@h DB 01H
__48250249_ddeml@h DB 01H
__4605C6DD_dlgs@h DB 01H
__C826BBA2_lzexpand@h DB 01H
__B8DFB118_mmsyscom@h DB 01H
__EDC2A662_mciapi@h DB 01H
__87B17D5B_mmiscapi@h DB 01H
__0C4862FC_mmiscapi2@h DB 01H
__83F5D08C_playsoundapi@h DB 01H
__CA3F1D44_mmeapi@h DB 01H
__BD2270BE_timeapi@h DB 01H
__397CAA2F_joystickapi@h DB 01H
__05A21AEE_mmsystem@h DB 01H
__6E1DF0B6_nb30@h DB 01H
__75098885_rpcdcep@h DB 01H
__D8AC8DD5_rpcdce@h DB 01H
__2F1118EF_rpcnsi@h DB 01H
__0DE10DFC_rpcnterr@h DB 01H
__4497164E_rpcasync@h DB 01H
__06CA6763_rpc@h DB 01H
__C32EC2F2_shellapi@h DB 01H
__B289ECB8_winperf@h DB 01H
__07EA6B7C_inaddr@h DB 01H
__9ED0251E_winsock@h DB 01H
__FD938996_bcrypt@h DB 01H
__4E32BFB9_ncrypt@h DB 01H
__815AA9AD_dpapi@h DB 01H
__0B2E95FF_wincrypt@h DB 01H
__288F6C52_winefs@h DB 01H
__B3F2ECA2_rpcnsip@h DB 01H
__AFB43543_rpcsal@h DB 01H
__16A21838_rpcndr@h DB 01H
__5314805F_wtypesbase@h DB 01H
__6EEE3703_wtypes@h DB 01H
__A7113148_winioctl@h DB 01H
__C595A37C_winsmcrd@h DB 01H
__42C56FB7_winscard@h DB 01H
__C4703BCA_prsht@h DB 01H
__D4D77F19_winspool@h DB 01H
__B47185B4_unknwnbase@h DB 01H
__B64C33F8_objidlbase@h DB 01H
__EA871F04_cguid@h DB 01H
__C78732AB_combaseapi@h DB 01H
__744BF5DA_unknwn@h DB 01H
__66C491E7_objidl@h DB 01H
__A217658B_oaidl@h DB 01H
__8485F416_propidlbase@h DB 01H
__65805CE1_coml2api@h DB 01H
__C7AD586F_oleidl@h DB 01H
__CBE55221_servprov@h DB 01H
__5B1E268A_msxml@h DB 01H
__1B3D3678_urlmon@h DB 01H
__EC5BC72C_propidl@h DB 01H
__0DD0E8F8_objbase@h DB 01H
__6DA674A0_oleauto@h DB 01H
__F7931962_ole2@h DB 01H
__870E9EB1_commdlg@h DB 01H
__A118E6DC_stralign@h DB 01H
__8B10FA9F_winsvc@h DB 01H
__BEDBF511_mcx@h DB 01H
__D3BCC989_ime_cmodes@h DB 01H
__B1694579_imm@h DB 01H
__CFBCA79E_Windows@h DB 01H
__3B3F7DDD_stdafx@h DB 01H
__3158125C_dayBeforeBr@cpp DB 01H
msvcjmc	ENDS
PUBLIC	?__empty_global_delete@@YAXPAX@Z		; __empty_global_delete
PUBLIC	?__empty_global_delete@@YAXPAXI@Z		; __empty_global_delete
PUBLIC	?dayBeforeBr@@YAHHH@Z				; dayBeforeBr
PUBLIC	__JustMyCode_Default
EXTRN	_abs:PROC
EXTRN	@__CheckForDebuggerJustMyCode@4:PROC
EXTRN	__RTC_CheckEsp:PROC
EXTRN	__RTC_InitBase:PROC
EXTRN	__RTC_Shutdown:PROC
;	COMDAT rtc$TMZ
rtc$TMZ	SEGMENT
__RTC_Shutdown.rtc$TMZ DD FLAT:__RTC_Shutdown
rtc$TMZ	ENDS
;	COMDAT rtc$IMZ
rtc$IMZ	SEGMENT
__RTC_InitBase.rtc$IMZ DD FLAT:__RTC_InitBase
rtc$IMZ	ENDS
; Function compile flags: /Odt
;	COMDAT __JustMyCode_Default
_TEXT	SEGMENT
__JustMyCode_Default PROC				; COMDAT
  00000	55		 push	 ebp
  00001	8b ec		 mov	 ebp, esp
  00003	5d		 pop	 ebp
  00004	c3		 ret	 0
__JustMyCode_Default ENDP
_TEXT	ENDS
; Function compile flags: /Odtp /RTCsu /ZI
; File C:\Users\User\Desktop\óí\êïî\lab1\lab1\dayBeforeBr.cpp
;	COMDAT ?dayBeforeBr@@YAHHH@Z
_TEXT	SEGMENT
_number$ = -8						; size = 4
_numberDay$ = 8						; size = 4
_br_numberDay$ = 12					; size = 4
?dayBeforeBr@@YAHHH@Z PROC				; dayBeforeBr, COMDAT

; 2    : int dayBeforeBr(int numberDay, int br_numberDay) {

  00000	55		 push	 ebp
  00001	8b ec		 mov	 ebp, esp
  00003	81 ec cc 00 00
	00		 sub	 esp, 204		; 000000ccH
  00009	53		 push	 ebx
  0000a	56		 push	 esi
  0000b	57		 push	 edi
  0000c	8d 7d f4	 lea	 edi, DWORD PTR [ebp-12]
  0000f	b9 03 00 00 00	 mov	 ecx, 3
  00014	b8 cc cc cc cc	 mov	 eax, -858993460		; ccccccccH
  00019	f3 ab		 rep stosd
  0001b	b9 00 00 00 00	 mov	 ecx, OFFSET __3158125C_dayBeforeBr@cpp
  00020	e8 00 00 00 00	 call	 @__CheckForDebuggerJustMyCode@4

; 3    : 	int number = abs(br_numberDay - numberDay);

  00025	8b 45 0c	 mov	 eax, DWORD PTR _br_numberDay$[ebp]
  00028	2b 45 08	 sub	 eax, DWORD PTR _numberDay$[ebp]
  0002b	50		 push	 eax
  0002c	e8 00 00 00 00	 call	 _abs
  00031	83 c4 04	 add	 esp, 4
  00034	89 45 f8	 mov	 DWORD PTR _number$[ebp], eax

; 4    : 	if (br_numberDay < numberDay) {

  00037	8b 45 0c	 mov	 eax, DWORD PTR _br_numberDay$[ebp]
  0003a	3b 45 08	 cmp	 eax, DWORD PTR _numberDay$[ebp]
  0003d	7d 0b		 jge	 SHORT $LN2@dayBeforeB

; 5    : 		number = 366 - number;

  0003f	b8 6e 01 00 00	 mov	 eax, 366		; 0000016eH
  00044	2b 45 f8	 sub	 eax, DWORD PTR _number$[ebp]
  00047	89 45 f8	 mov	 DWORD PTR _number$[ebp], eax
$LN2@dayBeforeB:

; 6    : 	}
; 7    : 	return number;

  0004a	8b 45 f8	 mov	 eax, DWORD PTR _number$[ebp]

; 8    : }

  0004d	5f		 pop	 edi
  0004e	5e		 pop	 esi
  0004f	5b		 pop	 ebx
  00050	81 c4 cc 00 00
	00		 add	 esp, 204		; 000000ccH
  00056	3b ec		 cmp	 ebp, esp
  00058	e8 00 00 00 00	 call	 __RTC_CheckEsp
  0005d	8b e5		 mov	 esp, ebp
  0005f	5d		 pop	 ebp
  00060	c3		 ret	 0
?dayBeforeBr@@YAHHH@Z ENDP				; dayBeforeBr
_TEXT	ENDS
; Function compile flags: /Odtp /RTCsu /ZI
; File C:\Users\User\Desktop\óí\êïî\lab1\lab1\dayBeforeBr.cpp
;	COMDAT ?__empty_global_delete@@YAXPAXI@Z
_TEXT	SEGMENT
___formal$ = 8						; size = 4
___formal$ = 12						; size = 4
?__empty_global_delete@@YAXPAXI@Z PROC			; __empty_global_delete, COMDAT

  00000	55		 push	 ebp
  00001	8b ec		 mov	 ebp, esp
  00003	81 ec c0 00 00
	00		 sub	 esp, 192		; 000000c0H
  00009	53		 push	 ebx
  0000a	56		 push	 esi
  0000b	57		 push	 edi
  0000c	8b fd		 mov	 edi, ebp
  0000e	33 c9		 xor	 ecx, ecx
  00010	b8 cc cc cc cc	 mov	 eax, -858993460		; ccccccccH
  00015	f3 ab		 rep stosd
  00017	b9 00 00 00 00	 mov	 ecx, OFFSET __3158125C_dayBeforeBr@cpp
  0001c	e8 00 00 00 00	 call	 @__CheckForDebuggerJustMyCode@4
  00021	5f		 pop	 edi
  00022	5e		 pop	 esi
  00023	5b		 pop	 ebx
  00024	81 c4 c0 00 00
	00		 add	 esp, 192		; 000000c0H
  0002a	3b ec		 cmp	 ebp, esp
  0002c	e8 00 00 00 00	 call	 __RTC_CheckEsp
  00031	8b e5		 mov	 esp, ebp
  00033	5d		 pop	 ebp
  00034	c3		 ret	 0
?__empty_global_delete@@YAXPAXI@Z ENDP			; __empty_global_delete
_TEXT	ENDS
; Function compile flags: /Odtp /RTCsu /ZI
; File C:\Users\User\Desktop\óí\êïî\lab1\lab1\dayBeforeBr.cpp
;	COMDAT ?__empty_global_delete@@YAXPAX@Z
_TEXT	SEGMENT
___formal$ = 8						; size = 4
?__empty_global_delete@@YAXPAX@Z PROC			; __empty_global_delete, COMDAT

  00000	55		 push	 ebp
  00001	8b ec		 mov	 ebp, esp
  00003	81 ec c0 00 00
	00		 sub	 esp, 192		; 000000c0H
  00009	53		 push	 ebx
  0000a	56		 push	 esi
  0000b	57		 push	 edi
  0000c	8b fd		 mov	 edi, ebp
  0000e	33 c9		 xor	 ecx, ecx
  00010	b8 cc cc cc cc	 mov	 eax, -858993460		; ccccccccH
  00015	f3 ab		 rep stosd
  00017	b9 00 00 00 00	 mov	 ecx, OFFSET __3158125C_dayBeforeBr@cpp
  0001c	e8 00 00 00 00	 call	 @__CheckForDebuggerJustMyCode@4
  00021	5f		 pop	 edi
  00022	5e		 pop	 esi
  00023	5b		 pop	 ebx
  00024	81 c4 c0 00 00
	00		 add	 esp, 192		; 000000c0H
  0002a	3b ec		 cmp	 ebp, esp
  0002c	e8 00 00 00 00	 call	 __RTC_CheckEsp
  00031	8b e5		 mov	 esp, ebp
  00033	5d		 pop	 ebp
  00034	c3		 ret	 0
?__empty_global_delete@@YAXPAX@Z ENDP			; __empty_global_delete
_TEXT	ENDS
END
