; Listing generated by Microsoft (R) Optimizing Compiler Version 19.33.31629.0 

	TITLE	C:\Users\User\Desktop\óí\êïî\lab1\lab1\Debug\findMonth.obj
	.686P
	.XMM
	include listing.inc
	.model	flat

INCLUDELIB MSVCRTD
INCLUDELIB OLDNAMES

msvcjmc	SEGMENT
__5E6DEEC0_findMonth@cpp DB 01H
msvcjmc	ENDS
PUBLIC	?findMonth@@YAHPAD@Z				; findMonth
PUBLIC	__JustMyCode_Default
EXTRN	@__CheckForDebuggerJustMyCode@4:PROC
EXTRN	__RTC_CheckEsp:PROC
EXTRN	__RTC_InitBase:PROC
EXTRN	__RTC_Shutdown:PROC
;	COMDAT rtc$TMZ
rtc$TMZ	SEGMENT
__RTC_Shutdown.rtc$TMZ DD FLAT:__RTC_Shutdown
rtc$TMZ	ENDS
;	COMDAT rtc$IMZ
rtc$IMZ	SEGMENT
__RTC_InitBase.rtc$IMZ DD FLAT:__RTC_InitBase
rtc$IMZ	ENDS
; Function compile flags: /Odt
;	COMDAT __JustMyCode_Default
_TEXT	SEGMENT
__JustMyCode_Default PROC				; COMDAT
  00000	55		 push	 ebp
  00001	8b ec		 mov	 ebp, esp
  00003	5d		 pop	 ebp
  00004	c3		 ret	 0
__JustMyCode_Default ENDP
_TEXT	ENDS
; Function compile flags: /Odtp /RTCsu /ZI
; File C:\Users\User\Desktop\óí\êïî\lab1\lab1\findMonth.cpp
;	COMDAT ?findMonth@@YAHPAD@Z
_TEXT	SEGMENT
_month$ = -8						; size = 4
_s$ = 8							; size = 4
?findMonth@@YAHPAD@Z PROC				; findMonth, COMDAT

; 1    : int findMonth(char* s) {

  00000	55		 push	 ebp
  00001	8b ec		 mov	 ebp, esp
  00003	81 ec cc 00 00
	00		 sub	 esp, 204		; 000000ccH
  00009	53		 push	 ebx
  0000a	56		 push	 esi
  0000b	57		 push	 edi
  0000c	8d 7d f4	 lea	 edi, DWORD PTR [ebp-12]
  0000f	b9 03 00 00 00	 mov	 ecx, 3
  00014	b8 cc cc cc cc	 mov	 eax, -858993460		; ccccccccH
  00019	f3 ab		 rep stosd
  0001b	b9 00 00 00 00	 mov	 ecx, OFFSET __5E6DEEC0_findMonth@cpp
  00020	e8 00 00 00 00	 call	 @__CheckForDebuggerJustMyCode@4

; 2    : 	int month;
; 3    : 	s += 2;

  00025	8b 45 08	 mov	 eax, DWORD PTR _s$[ebp]
  00028	83 c0 02	 add	 eax, 2
  0002b	89 45 08	 mov	 DWORD PTR _s$[ebp], eax

; 4    : 	month = int(*s - '0') * 10;

  0002e	8b 45 08	 mov	 eax, DWORD PTR _s$[ebp]
  00031	0f be 08	 movsx	 ecx, BYTE PTR [eax]
  00034	83 e9 30	 sub	 ecx, 48			; 00000030H
  00037	6b d1 0a	 imul	 edx, ecx, 10
  0003a	89 55 f8	 mov	 DWORD PTR _month$[ebp], edx

; 5    : 	month += *(s + 1) - '0';

  0003d	8b 45 08	 mov	 eax, DWORD PTR _s$[ebp]
  00040	0f be 48 01	 movsx	 ecx, BYTE PTR [eax+1]
  00044	8b 55 f8	 mov	 edx, DWORD PTR _month$[ebp]
  00047	8d 44 0a d0	 lea	 eax, DWORD PTR [edx+ecx-48]
  0004b	89 45 f8	 mov	 DWORD PTR _month$[ebp], eax

; 6    : 	return month;

  0004e	8b 45 f8	 mov	 eax, DWORD PTR _month$[ebp]

; 7    : }

  00051	5f		 pop	 edi
  00052	5e		 pop	 esi
  00053	5b		 pop	 ebx
  00054	81 c4 cc 00 00
	00		 add	 esp, 204		; 000000ccH
  0005a	3b ec		 cmp	 ebp, esp
  0005c	e8 00 00 00 00	 call	 __RTC_CheckEsp
  00061	8b e5		 mov	 esp, ebp
  00063	5d		 pop	 ebp
  00064	c3		 ret	 0
?findMonth@@YAHPAD@Z ENDP				; findMonth
_TEXT	ENDS
END
