; Listing generated by Microsoft (R) Optimizing Compiler Version 19.33.31629.0 

	TITLE	C:\Users\User\Desktop\óí\êïî\lab1\lab1\Debug\findDay.obj
	.686P
	.XMM
	include listing.inc
	.model	flat

INCLUDELIB MSVCRTD
INCLUDELIB OLDNAMES

msvcjmc	SEGMENT
__0485789A_findDay@cpp DB 01H
msvcjmc	ENDS
PUBLIC	?findDay@@YAHPAD@Z				; findDay
PUBLIC	__JustMyCode_Default
EXTRN	@__CheckForDebuggerJustMyCode@4:PROC
EXTRN	__RTC_CheckEsp:PROC
EXTRN	__RTC_InitBase:PROC
EXTRN	__RTC_Shutdown:PROC
;	COMDAT rtc$TMZ
rtc$TMZ	SEGMENT
__RTC_Shutdown.rtc$TMZ DD FLAT:__RTC_Shutdown
rtc$TMZ	ENDS
;	COMDAT rtc$IMZ
rtc$IMZ	SEGMENT
__RTC_InitBase.rtc$IMZ DD FLAT:__RTC_InitBase
rtc$IMZ	ENDS
; Function compile flags: /Odt
;	COMDAT __JustMyCode_Default
_TEXT	SEGMENT
__JustMyCode_Default PROC				; COMDAT
  00000	55		 push	 ebp
  00001	8b ec		 mov	 ebp, esp
  00003	5d		 pop	 ebp
  00004	c3		 ret	 0
__JustMyCode_Default ENDP
_TEXT	ENDS
; Function compile flags: /Odtp /RTCsu /ZI
; File C:\Users\User\Desktop\óí\êïî\lab1\lab1\findDay.cpp
;	COMDAT ?findDay@@YAHPAD@Z
_TEXT	SEGMENT
_day$ = -8						; size = 4
_s$ = 8							; size = 4
?findDay@@YAHPAD@Z PROC					; findDay, COMDAT

; 1    : int findDay(char* s) {

  00000	55		 push	 ebp
  00001	8b ec		 mov	 ebp, esp
  00003	81 ec cc 00 00
	00		 sub	 esp, 204		; 000000ccH
  00009	53		 push	 ebx
  0000a	56		 push	 esi
  0000b	57		 push	 edi
  0000c	8d 7d f4	 lea	 edi, DWORD PTR [ebp-12]
  0000f	b9 03 00 00 00	 mov	 ecx, 3
  00014	b8 cc cc cc cc	 mov	 eax, -858993460		; ccccccccH
  00019	f3 ab		 rep stosd
  0001b	b9 00 00 00 00	 mov	 ecx, OFFSET __0485789A_findDay@cpp
  00020	e8 00 00 00 00	 call	 @__CheckForDebuggerJustMyCode@4

; 2    : 	int day;
; 3    : 	day = int(*s - '0') * 10;

  00025	8b 45 08	 mov	 eax, DWORD PTR _s$[ebp]
  00028	0f be 08	 movsx	 ecx, BYTE PTR [eax]
  0002b	83 e9 30	 sub	 ecx, 48			; 00000030H
  0002e	6b d1 0a	 imul	 edx, ecx, 10
  00031	89 55 f8	 mov	 DWORD PTR _day$[ebp], edx

; 4    : 	day += *(s + 1) - '0';

  00034	8b 45 08	 mov	 eax, DWORD PTR _s$[ebp]
  00037	0f be 48 01	 movsx	 ecx, BYTE PTR [eax+1]
  0003b	8b 55 f8	 mov	 edx, DWORD PTR _day$[ebp]
  0003e	8d 44 0a d0	 lea	 eax, DWORD PTR [edx+ecx-48]
  00042	89 45 f8	 mov	 DWORD PTR _day$[ebp], eax

; 5    : 	return day;

  00045	8b 45 f8	 mov	 eax, DWORD PTR _day$[ebp]

; 6    : }

  00048	5f		 pop	 edi
  00049	5e		 pop	 esi
  0004a	5b		 pop	 ebx
  0004b	81 c4 cc 00 00
	00		 add	 esp, 204		; 000000ccH
  00051	3b ec		 cmp	 ebp, esp
  00053	e8 00 00 00 00	 call	 __RTC_CheckEsp
  00058	8b e5		 mov	 esp, ebp
  0005a	5d		 pop	 ebp
  0005b	c3		 ret	 0
?findDay@@YAHPAD@Z ENDP					; findDay
_TEXT	ENDS
END
